; Function Attrs: nounwind uwtable
define ptr @OSSL_STORE_LOADER_get0_provider(ptr noundef readonly captures(address_is_null) %0) local_unnamed_addr #2 {
  %.not = icmp eq ptr %0, null
  br i1 %.not, label %2, label %3, !prof !23

2:                                                ; preds = %1
  tail call void @ERR_new() #6
  tail call void @ERR_set_debug(ptr noundef nonnull @.str, i32 noundef 411, ptr noundef nonnull @__func__.OSSL_STORE_LOADER_get0_provider) #6
  tail call void (i32, i32, ptr, ...) @ERR_set_error(i32 noundef 44, i32 noundef 786690, ptr noundef null) #6
  br label %6

3:                                                ; preds = %1
  %4 = getelementptr inbounds nuw i8, ptr %0, i64 96
  %5 = load ptr, ptr %4, align 8, !tbaa !3
  br label %6

6:                                                ; preds = %3, %2
  %.0 = phi ptr [ %5, %3 ], [ null, %2 ]
  ret ptr %.0
}